target datalayout = "e-m:e-p270:32:32-p271:32:32-p272:64:64-i64:64-i128:128-f80:128-n8:16:32:64-S128"
target triple = "x86_64-pc-linux-gnu"

%struct.epan_column_info = type { ptr, i32, ptr, ptr, ptr, %struct.col_expr_t, i32, ptr }
%struct.col_expr_t = type { ptr, ptr }
%struct.col_item_t = type { i32, ptr, ptr, ptr, i32, ptr, ptr, ptr, ptr, i32, i32, i32 }

; Function Attrs: nounwind uwtable
define internal void @col_custom_fields_ids_free(ptr noundef %0) #0 {
  %2 = alloca ptr, align 8
  store ptr %0, ptr %2, align 8
  %3 = load ptr, ptr %2, align 8
  %4 = load ptr, ptr %3, align 8
  %5 = icmp ne ptr %4, null
  br i1 %5, label %6, label %9

6:                                                ; preds = %1
  %7 = load ptr, ptr %2, align 8
  %8 = load ptr, ptr %7, align 8
  call void @g_slist_free_full(ptr noundef %8, ptr noundef @col_custom_free_cb)
  br label %9

9:                                                ; preds = %6, %1
  %10 = load ptr, ptr %2, align 8
  store ptr null, ptr %10, align 8
  ret void
}

; Function Attrs: nounwind uwtable
define void @col_cleanup(ptr noundef %0) #0 {
  %2 = alloca ptr, align 8
  %3 = alloca i32, align 4
  %4 = alloca ptr, align 8
  store ptr %0, ptr %2, align 8
  %5 = load ptr, ptr %2, align 8
  %6 = icmp ne ptr %5, null
  br i1 %6, label %8, label %7

7:                                                ; preds = %1
  br label %76

8:                                                ; preds = %1
  store i32 0, ptr %3, align 4
  br label %9

9:                                                ; preds = %47, %8
  %10 = load i32, ptr %3, align 4
  %11 = load ptr, ptr %2, align 8
  %12 = getelementptr inbounds %struct.epan_column_info, ptr %11, i32 0, i32 1
  %13 = load i32, ptr %12, align 8
  %14 = icmp slt i32 %10, %13
  br i1 %14, label %15, label %50

15:                                               ; preds = %9
  %16 = load ptr, ptr %2, align 8
  %17 = getelementptr inbounds %struct.epan_column_info, ptr %16, i32 0, i32 2
  %18 = load ptr, ptr %17, align 8
  %19 = load i32, ptr %3, align 4
  %20 = sext i32 %19 to i64
  %21 = getelementptr %struct.col_item_t, ptr %18, i64 %20
  store ptr %21, ptr %4, align 8
  %22 = load ptr, ptr %4, align 8
  %23 = getelementptr inbounds %struct.col_item_t, ptr %22, i32 0, i32 1
  %24 = load ptr, ptr %23, align 8
  call void @g_free(ptr noundef %24)
  %25 = load ptr, ptr %4, align 8
  %26 = getelementptr inbounds %struct.col_item_t, ptr %25, i32 0, i32 2
  %27 = load ptr, ptr %26, align 8
  call void @g_free(ptr noundef %27)
  %28 = load ptr, ptr %4, align 8
  %29 = getelementptr inbounds %struct.col_item_t, ptr %28, i32 0, i32 3
  %30 = load ptr, ptr %29, align 8
  call void @g_free(ptr noundef %30)
  %31 = load ptr, ptr %4, align 8
  %32 = getelementptr inbounds %struct.col_item_t, ptr %31, i32 0, i32 6
  %33 = load ptr, ptr %32, align 8
  call void @dfilter_free(ptr noundef %33)
  %34 = load ptr, ptr %4, align 8
  %35 = getelementptr inbounds %struct.col_item_t, ptr %34, i32 0, i32 8
  %36 = load ptr, ptr %35, align 8
  call void @g_free(ptr noundef %36)
  %37 = load ptr, ptr %2, align 8
  %38 = getelementptr inbounds %struct.epan_column_info, ptr %37, i32 0, i32 5
  %39 = getelementptr inbounds %struct.col_expr_t, ptr %38, i32 0, i32 1
  %40 = load ptr, ptr %39, align 8
  %41 = load i32, ptr %3, align 4
  %42 = sext i32 %41 to i64
  %43 = getelementptr ptr, ptr %40, i64 %42
  %44 = load ptr, ptr %43, align 8
  call void @g_free(ptr noundef %44)
  %45 = load ptr, ptr %4, align 8
  %46 = getelementptr inbounds %struct.col_item_t, ptr %45, i32 0, i32 5
  call void @col_custom_fields_ids_free(ptr noundef %46)
  br label %47

47:                                               ; preds = %15
  %48 = load i32, ptr %3, align 4
  %49 = add i32 %48, 1
  store i32 %49, ptr %3, align 4
  br label %9, !llvm.loop !7

50:                                               ; preds = %9
  %51 = load ptr, ptr %2, align 8
  %52 = getelementptr inbounds %struct.epan_column_info, ptr %51, i32 0, i32 2
  %53 = load ptr, ptr %52, align 8
  call void @g_free(ptr noundef %53)
  %54 = load ptr, ptr %2, align 8
  %55 = getelementptr inbounds %struct.epan_column_info, ptr %54, i32 0, i32 3
  %56 = load ptr, ptr %55, align 8
  call void @g_free(ptr noundef %56)
  %57 = load ptr, ptr %2, align 8
  %58 = getelementptr inbounds %struct.epan_column_info, ptr %57, i32 0, i32 4
  %59 = load ptr, ptr %58, align 8
  call void @g_free(ptr noundef %59)
  %60 = load ptr, ptr %2, align 8
  %61 = getelementptr inbounds %struct.epan_column_info, ptr %60, i32 0, i32 5
  %62 = getelementptr inbounds %struct.col_expr_t, ptr %61, i32 0, i32 0
  %63 = load ptr, ptr %62, align 8
  call void @g_free(ptr noundef %63)
  %64 = load ptr, ptr %2, align 8
  %65 = getelementptr inbounds %struct.epan_column_info, ptr %64, i32 0, i32 5
  %66 = getelementptr inbounds %struct.col_expr_t, ptr %65, i32 0, i32 1
  %67 = load ptr, ptr %66, align 8
  call void @g_free(ptr noundef %67)
  %68 = load ptr, ptr %2, align 8
  %69 = getelementptr inbounds %struct.epan_column_info, ptr %68, i32 0, i32 7
  %70 = load ptr, ptr %69, align 8
  %71 = icmp ne ptr %70, null
  br i1 %71, label %72, label %76

72:                                               ; preds = %50
  %73 = load ptr, ptr %2, align 8
  %74 = getelementptr inbounds %struct.epan_column_info, ptr %73, i32 0, i32 7
  %75 = load ptr, ptr %74, align 8
  call void @g_regex_unref(ptr noundef %75)
  br label %76

76:                                               ; preds = %72, %50, %7
  ret void
}