; Function Attrs: nounwind uwtable
define void @col_cleanup(ptr noundef readonly %0) local_unnamed_addr #0 {
  %.not = icmp eq ptr %0, null
  br i1 %.not, label %42, label %.preheader

.preheader:                                       ; preds = %1
  %2 = getelementptr inbounds nuw i8, ptr %0, i64 8
  %3 = load i32, ptr %2, align 8
  %4 = icmp sgt i32 %3, 0
  br i1 %4, label %.lr.ph, label %._crit_edge

.lr.ph:                                           ; preds = %.preheader
  %5 = getelementptr inbounds nuw i8, ptr %0, i64 16
  %6 = getelementptr inbounds nuw i8, ptr %0, i64 48
  br label %7

7:                                                ; preds = %.lr.ph, %col_custom_fields_ids_free.exit
  %indvars.iv = phi i64 [ 0, %.lr.ph ], [ %indvars.iv.next, %col_custom_fields_ids_free.exit ]
  %8 = load ptr, ptr %5, align 8
  %9 = getelementptr %struct.col_item_t, ptr %8, i64 %indvars.iv
  %10 = getelementptr inbounds nuw i8, ptr %9, i64 8
  %11 = load ptr, ptr %10, align 8
  tail call void @g_free(ptr noundef %11) #16
  %12 = getelementptr inbounds nuw i8, ptr %9, i64 16
  %13 = load ptr, ptr %12, align 8
  tail call void @g_free(ptr noundef %13) #16
  %14 = getelementptr inbounds nuw i8, ptr %9, i64 24
  %15 = load ptr, ptr %14, align 8
  tail call void @g_free(ptr noundef %15) #16
  %16 = getelementptr inbounds nuw i8, ptr %9, i64 48
  %17 = load ptr, ptr %16, align 8
  tail call void @dfilter_free(ptr noundef %17) #16
  %18 = getelementptr inbounds nuw i8, ptr %9, i64 64
  %19 = load ptr, ptr %18, align 8
  tail call void @g_free(ptr noundef %19) #16
  %20 = load ptr, ptr %6, align 8
  %21 = getelementptr ptr, ptr %20, i64 %indvars.iv
  %22 = load ptr, ptr %21, align 8
  tail call void @g_free(ptr noundef %22) #16
  %23 = getelementptr inbounds nuw i8, ptr %9, i64 40
  %24 = load ptr, ptr %23, align 8
  %.not.i = icmp eq ptr %24, null
  br i1 %.not.i, label %col_custom_fields_ids_free.exit, label %25

25:                                               ; preds = %7
  tail call void @g_slist_free_full(ptr noundef nonnull %24, ptr noundef nonnull @col_custom_free_cb) #16
  br label %col_custom_fields_ids_free.exit

col_custom_fields_ids_free.exit:                  ; preds = %7, %25
  store ptr null, ptr %23, align 8
  %indvars.iv.next = add nuw nsw i64 %indvars.iv, 1
  %26 = load i32, ptr %2, align 8
  %27 = sext i32 %26 to i64
  %28 = icmp slt i64 %indvars.iv.next, %27
  br i1 %28, label %7, label %._crit_edge, !llvm.loop !7

._crit_edge:                                      ; preds = %col_custom_fields_ids_free.exit, %.preheader
  %29 = getelementptr inbounds nuw i8, ptr %0, i64 16
  %30 = load ptr, ptr %29, align 8
  tail call void @g_free(ptr noundef %30) #16
  %31 = getelementptr inbounds nuw i8, ptr %0, i64 24
  %32 = load ptr, ptr %31, align 8
  tail call void @g_free(ptr noundef %32) #16
  %33 = getelementptr inbounds nuw i8, ptr %0, i64 32
  %34 = load ptr, ptr %33, align 8
  tail call void @g_free(ptr noundef %34) #16
  %35 = getelementptr inbounds nuw i8, ptr %0, i64 40
  %36 = load ptr, ptr %35, align 8
  tail call void @g_free(ptr noundef %36) #16
  %37 = getelementptr inbounds nuw i8, ptr %0, i64 48
  %38 = load ptr, ptr %37, align 8
  tail call void @g_free(ptr noundef %38) #16
  %39 = getelementptr inbounds nuw i8, ptr %0, i64 64
  %40 = load ptr, ptr %39, align 8
  %.not22 = icmp eq ptr %40, null
  br i1 %.not22, label %42, label %41

41:                                               ; preds = %._crit_edge
  tail call void @g_regex_unref(ptr noundef nonnull %40) #16
  br label %42

42:                                               ; preds = %1, %41, %._crit_edge
  ret void
}